; Function Attrs: mustprogress uwtable
define noundef zeroext i1 @_ZN5Ipopt14DenseGenMatrix19ComputeEigenVectorsERKNS_14DenseSymMatrixERNS_11DenseVectorE(ptr noundef nonnull align 8 dereferenceable(104) %0, ptr noundef nonnull readonly align 8 captures(none) dereferenceable(97) %1, ptr noundef nonnull align 8 dereferenceable(248) %2) local_unnamed_addr #2 align 2 {
  %4 = alloca i32, align 4
  %5 = getelementptr inbounds nuw i8, ptr %1, i64 72
  %6 = load ptr, ptr %5, align 8, !tbaa !93
  %7 = getelementptr inbounds nuw i8, ptr %6, i64 12
  %8 = load i32, ptr %7, align 4, !tbaa !33
  %9 = getelementptr inbounds nuw i8, ptr %1, i64 88
  %10 = load ptr, ptr %9, align 8, !tbaa !96
  %11 = icmp sgt i32 %8, 0
  br i1 %11, label %.preheader.lr.ph, label %._crit_edge

.preheader.lr.ph:                                 ; preds = %3
  %12 = getelementptr inbounds nuw i8, ptr %0, i64 80
  %13 = load ptr, ptr %12, align 8, !tbaa !34
  %14 = zext nneg i32 %8 to i64
  br label %.preheader

.preheader:                                       ; preds = %.preheader.lr.ph, %48
  %indvars.iv = phi i64 [ 0, %.preheader.lr.ph ], [ %indvars.iv.next, %48 ]
  %15 = mul nuw nsw i64 %indvars.iv, %14
  br label %49

._crit_edge:                                      ; preds = %48, %3
  %16 = getelementptr inbounds nuw i8, ptr %2, i64 232
  %17 = load i8, ptr %16, align 8, !tbaa !102, !range !103, !noundef !104
  %18 = trunc nuw i8 %17 to i1
  br i1 %18, label %19, label %24

19:                                               ; preds = %._crit_edge
  %20 = getelementptr inbounds nuw i8, ptr %2, i64 233
  %21 = load i8, ptr %20, align 1, !tbaa !105, !range !103, !noundef !104
  %22 = trunc nuw i8 %21 to i1
  br i1 %22, label %23, label %24

23:                                               ; preds = %19
  tail call void @_ZN5Ipopt11DenseVector22set_values_from_scalarEv(ptr noundef nonnull align 8 dereferenceable(248) %2)
  br label %24

24:                                               ; preds = %23, %19, %._crit_edge
  tail call void @_ZN5Ipopt12TaggedObject13ObjectChangedEv(ptr noundef nonnull align 8 dereferenceable(248) %2)
  store i8 1, ptr %16, align 8, !tbaa !102
  %25 = getelementptr inbounds nuw i8, ptr %2, i64 233
  store i8 0, ptr %25, align 1, !tbaa !105
  %26 = getelementptr inbounds nuw i8, ptr %2, i64 216
  %27 = load ptr, ptr %26, align 8, !tbaa !38
  %28 = icmp eq ptr %27, null
  br i1 %28, label %29, label %_ZN5Ipopt11DenseVector6ValuesEv.exit

29:                                               ; preds = %24
  %30 = getelementptr inbounds nuw i8, ptr %2, i64 208
  %31 = load ptr, ptr %30, align 8, !tbaa !106
  %32 = getelementptr inbounds nuw i8, ptr %31, i64 12
  %33 = load i32, ptr %32, align 4, !tbaa !107
  %34 = icmp sgt i32 %33, 0
  br i1 %34, label %35, label %_ZNK5Ipopt16DenseVectorSpace23AllocateInternalStorageEv.exit.i.i

35:                                               ; preds = %29
  %36 = zext nneg i32 %33 to i64
  %37 = shl nuw nsw i64 %36, 3
  %38 = tail call noalias noundef nonnull ptr @_Znam(i64 noundef %37) #21
  br label %_ZNK5Ipopt16DenseVectorSpace23AllocateInternalStorageEv.exit.i.i

_ZNK5Ipopt16DenseVectorSpace23AllocateInternalStorageEv.exit.i.i: ; preds = %35, %29
  %.0.i.i.i = phi ptr [ %38, %35 ], [ null, %29 ]
  store ptr %.0.i.i.i, ptr %26, align 8, !tbaa !38
  br label %_ZN5Ipopt11DenseVector6ValuesEv.exit

_ZN5Ipopt11DenseVector6ValuesEv.exit:             ; preds = %24, %_ZNK5Ipopt16DenseVectorSpace23AllocateInternalStorageEv.exit.i.i
  %39 = phi ptr [ %27, %24 ], [ %.0.i.i.i, %_ZNK5Ipopt16DenseVectorSpace23AllocateInternalStorageEv.exit.i.i ]
  call void @llvm.lifetime.start.p0(i64 4, ptr nonnull %4) #20
  %40 = getelementptr inbounds nuw i8, ptr %0, i64 80
  %41 = load ptr, ptr %40, align 8, !tbaa !34
  call void @_ZN5Ipopt12IpLapackSyevEbiPdiS0_Ri(i1 noundef zeroext true, i32 noundef %8, ptr noundef %41, i32 noundef %8, ptr noundef %39, ptr noundef nonnull align 4 dereferenceable(4) %4)
  %42 = load i32, ptr %4, align 4, !tbaa !51
  %43 = icmp eq i32 %42, 0
  %44 = getelementptr inbounds nuw i8, ptr %0, i64 88
  %45 = zext i1 %43 to i8
  store i8 %45, ptr %44, align 8, !tbaa !35
  call void @_ZN5Ipopt12TaggedObject13ObjectChangedEv(ptr noundef nonnull align 8 dereferenceable(56) %0)
  %46 = load i32, ptr %4, align 4, !tbaa !51
  %47 = icmp eq i32 %46, 0
  call void @llvm.lifetime.end.p0(i64 4, ptr nonnull %4) #20
  ret i1 %47

48:                                               ; preds = %49
  %indvars.iv.next = add nuw nsw i64 %indvars.iv, 1
  %exitcond31.not = icmp eq i64 %indvars.iv.next, %14
  br i1 %exitcond31.not, label %._crit_edge, label %.preheader, !llvm.loop !109

49:                                               ; preds = %.preheader, %49
  %indvars.iv26 = phi i64 [ %indvars.iv, %.preheader ], [ %indvars.iv.next27, %49 ]
  %50 = add nuw nsw i64 %indvars.iv26, %15
  %51 = getelementptr inbounds nuw double, ptr %10, i64 %50
  %52 = load double, ptr %51, align 8, !tbaa !47
  %53 = getelementptr inbounds nuw double, ptr %13, i64 %50
  store double %52, ptr %53, align 8, !tbaa !47
  %indvars.iv.next27 = add nuw nsw i64 %indvars.iv26, 1
  %exitcond.not = icmp eq i64 %indvars.iv.next27, %14
  br i1 %exitcond.not, label %48, label %49, !llvm.loop !110
}